; ModuleID = 'bench/ffmpeg/original/time.ll'
source_filename = "bench/ffmpeg/original/time.ll"
target datalayout = "e-m:e-p270:32:32-p271:32:32-p272:64:64-i64:64-i128:128-f80:128-n8:16:32:64-S128"
target triple = "x86_64-pc-linux-gnu"

%struct.timeval = type { i64, i64 }
%struct.timespec = type { i64, i64 }

; Function Attrs: nofree nounwind uwtable
define i64 @av_gettime() local_unnamed_addr #0 {
  %1 = alloca %struct.timeval, align 8
  call void @llvm.lifetime.start.p0(i64 16, ptr nonnull %1) #8
  %2 = call i32 @gettimeofday(ptr noundef nonnull %1, ptr noundef null) #8
  %3 = load i64, ptr %1, align 8, !tbaa !4
  %4 = mul nsw i64 %3, 1000000
  %5 = getelementptr inbounds nuw i8, ptr %1, i64 8
  %6 = load i64, ptr %5, align 8, !tbaa !9
  %7 = add nsw i64 %4, %6
  call void @llvm.lifetime.end.p0(i64 16, ptr nonnull %1) #8
  ret i64 %7
}

; Function Attrs: mustprogress nocallback nofree nosync nounwind willreturn memory(argmem: readwrite)
declare void @llvm.lifetime.start.p0(i64 immarg, ptr captures(none)) #1

; Function Attrs: nofree nounwind
declare noundef i32 @gettimeofday(ptr noundef captures(none), ptr noundef captures(none)) local_unnamed_addr #2

; Function Attrs: mustprogress nocallback nofree nosync nounwind willreturn memory(argmem: readwrite)
declare void @llvm.lifetime.end.p0(i64 immarg, ptr captures(none)) #1

; Function Attrs: nounwind uwtable
define i64 @av_gettime_relative() local_unnamed_addr #3 {
  %1 = alloca %struct.timespec, align 8
  call void @llvm.lifetime.start.p0(i64 16, ptr nonnull %1) #8
  %2 = call i32 @clock_gettime(i32 noundef 1, ptr noundef nonnull %1) #8
  %3 = load i64, ptr %1, align 8, !tbaa !10
  %4 = mul nsw i64 %3, 1000000
  %5 = getelementptr inbounds nuw i8, ptr %1, i64 8
  %6 = load i64, ptr %5, align 8, !tbaa !12
  %7 = sdiv i64 %6, 1000
  %8 = add nsw i64 %7, %4
  call void @llvm.lifetime.end.p0(i64 16, ptr nonnull %1) #8
  ret i64 %8
}

; Function Attrs: nounwind
declare i32 @clock_gettime(i32 noundef, ptr noundef) local_unnamed_addr #4

; Function Attrs: mustprogress nofree norecurse nosync nounwind willreturn memory(none) uwtable
define noundef i32 @av_gettime_relative_is_monotonic() local_unnamed_addr #5 {
  ret i32 1
}

; Function Attrs: nounwind uwtable
define noundef i32 @av_usleep(i32 noundef %0) local_unnamed_addr #3 {
  %2 = alloca %struct.timespec, align 8
  call void @llvm.lifetime.start.p0(i64 16, ptr nonnull %2) #8
  %3 = udiv i32 %0, 1000000
  %4 = zext nneg i32 %3 to i64
  store i64 %4, ptr %2, align 8, !tbaa !10
  %5 = getelementptr inbounds nuw i8, ptr %2, i64 8
  %6 = urem i32 %0, 1000000
  %7 = mul nuw nsw i32 %6, 1000
  %8 = zext nneg i32 %7 to i64
  store i64 %8, ptr %5, align 8, !tbaa !12
  br label %9

9:                                                ; preds = %12, %1
  %10 = call i32 @nanosleep(ptr noundef nonnull %2, ptr noundef nonnull %2) #8
  %11 = icmp slt i32 %10, 0
  br i1 %11, label %12, label %.critedge

12:                                               ; preds = %9
  %13 = tail call ptr @__errno_location() #9
  %14 = load i32, ptr %13, align 4, !tbaa !13
  %15 = icmp eq i32 %14, 4
  br i1 %15, label %9, label %.critedge, !llvm.loop !15

.critedge:                                        ; preds = %9, %12
  call void @llvm.lifetime.end.p0(i64 16, ptr nonnull %2) #8
  ret i32 0
}

declare i32 @nanosleep(ptr noundef, ptr noundef) local_unnamed_addr #6

; Function Attrs: mustprogress nofree nosync nounwind willreturn memory(none)
declare ptr @__errno_location() local_unnamed_addr #7


!llvm.module.flags = !{!0, !1, !2, !3}

!0 = !{i32 1, !"wchar_size", i32 4}
!1 = !{i32 8, !"PIC Level", i32 2}
!2 = !{i32 7, !"uwtable", i32 2}
!3 = !{i32 1, !"override-stack-alignment", i32 16}
!4 = !{!5, !6, i64 0}
!5 = !{!"timeval", !6, i64 0, !6, i64 8}
!6 = !{!"long", !7, i64 0}
!7 = !{!"omnipotent char", !8, i64 0}
!8 = !{!"Simple C/C++ TBAA"}
!9 = !{!5, !6, i64 8}
!10 = !{!11, !6, i64 0}
!11 = !{!"timespec", !6, i64 0, !6, i64 8}
!12 = !{!11, !6, i64 8}
!13 = !{!14, !14, i64 0}
!14 = !{!"int", !7, i64 0}
!15 = distinct !{!15, !16}
!16 = !{!"llvm.loop.mustprogress"}
